; Function Attrs: nounwind uwtable
define hidden void @zim_PDO_commit(ptr noundef readonly captures(none) %0, ptr noundef writeonly captures(none) %1) #0 {
  %3 = getelementptr inbounds nuw i8, ptr %0, i64 32
  %4 = load ptr, ptr %3, align 8, !tbaa !4
  %5 = getelementptr i8, ptr %4, i64 -8
  %.val = load ptr, ptr %5, align 8, !tbaa !90
  %6 = getelementptr inbounds nuw i8, ptr %0, i64 44
  %7 = load i32, ptr %6, align 4, !tbaa !4
  %.not = icmp eq i32 %7, 0
  br i1 %.not, label %9, label %8, !prof !66

8:                                                ; preds = %2
  tail call void @zend_wrong_parameters_none_error() #13
  br label %50

9:                                                ; preds = %2
  %10 = getelementptr inbounds nuw i8, ptr %.val, i64 120
  %11 = load ptr, ptr %10, align 8, !tbaa !106
  %.not12 = icmp eq ptr %11, null
  br i1 %.not12, label %12, label %20

12:                                               ; preds = %9
  %13 = getelementptr inbounds nuw i8, ptr %4, i64 16
  %14 = load ptr, ptr %13, align 8, !tbaa !119
  %15 = getelementptr inbounds nuw i8, ptr %14, i64 8
  %16 = load ptr, ptr %15, align 8, !tbaa !79
  %17 = getelementptr inbounds nuw i8, ptr %16, i64 24
  tail call void (ptr, ptr, ...) @zend_throw_error(ptr noundef null, ptr noundef nonnull @.str.24, ptr noundef nonnull %17) #13
  %18 = load ptr, ptr getelementptr inbounds nuw (i8, ptr @executor_globals, i64 960), align 8, !tbaa !64
  %19 = icmp ne ptr %18, null
  tail call void @llvm.assume(i1 %19)
  br label %50

20:                                               ; preds = %9
  %21 = load ptr, ptr %.val, align 8, !tbaa !59
  %22 = getelementptr inbounds nuw i8, ptr %21, i64 112
  %23 = load ptr, ptr %22, align 8, !tbaa !127
  %.not.i = icmp eq ptr %23, null
  br i1 %.not.i, label %pdo_is_in_transaction.exit, label %24

24:                                               ; preds = %20
  %25 = tail call zeroext i1 %23(ptr noundef nonnull %.val) #13
  br i1 %25, label %._crit_edge, label %29

._crit_edge:                                      ; preds = %24
  %.pre = load ptr, ptr %.val, align 8, !tbaa !59
  br label %34

pdo_is_in_transaction.exit:                       ; preds = %20
  %26 = getelementptr inbounds nuw i8, ptr %.val, i64 32
  %27 = load i32, ptr %26, align 8
  %28 = and i32 %27, 16
  %.not14 = icmp eq i32 %28, 0
  br i1 %.not14, label %29, label %34

29:                                               ; preds = %24, %pdo_is_in_transaction.exit
  %30 = tail call ptr @php_pdo_get_exception() #13
  %31 = tail call ptr (ptr, i64, ptr, ...) @zend_throw_exception_ex(ptr noundef %30, i64 noundef 0, ptr noundef nonnull @.str.34) #13
  %32 = load ptr, ptr getelementptr inbounds nuw (i8, ptr @executor_globals, i64 960), align 8, !tbaa !64
  %33 = icmp ne ptr %32, null
  tail call void @llvm.assume(i1 %33)
  br label %50

34:                                               ; preds = %._crit_edge, %pdo_is_in_transaction.exit
  %35 = phi ptr [ %.pre, %._crit_edge ], [ %21, %pdo_is_in_transaction.exit ]
  %36 = getelementptr inbounds nuw i8, ptr %35, i64 40
  %37 = load ptr, ptr %36, align 8, !tbaa !129
  %38 = tail call zeroext i1 %37(ptr noundef nonnull %.val) #13
  br i1 %38, label %39, label %44

39:                                               ; preds = %34
  %40 = getelementptr inbounds nuw i8, ptr %.val, i64 32
  %41 = load i32, ptr %40, align 8
  %42 = and i32 %41, -17
  store i32 %42, ptr %40, align 8
  %43 = getelementptr inbounds nuw i8, ptr %1, i64 8
  store i32 3, ptr %43, align 8, !tbaa !4
  br label %50

44:                                               ; preds = %34
  %45 = getelementptr inbounds nuw i8, ptr %.val, i64 56
  %46 = tail call i32 @strcmp(ptr noundef nonnull dereferenceable(1) %45, ptr noundef nonnull dereferenceable(6) @.str.25) #14
  %.not13 = icmp eq i32 %46, 0
  br i1 %.not13, label %48, label %47

47:                                               ; preds = %44
  tail call void @pdo_handle_error(ptr noundef nonnull %.val, ptr noundef null)
  br label %48

48:                                               ; preds = %47, %44
  %49 = getelementptr inbounds nuw i8, ptr %1, i64 8
  store i32 2, ptr %49, align 8, !tbaa !4
  br label %50

50:                                               ; preds = %48, %39, %29, %12, %8
  ret void
}